target datalayout = "e-m:e-p270:32:32-p271:32:32-p272:64:64-i64:64-i128:128-f80:128-n8:16:32:64-S128"
target triple = "x86_64-pc-linux-gnu"

@.str.34 = private unnamed_addr constant [8 x i8] c"parse.c\00", align 1
@__func__.convert_file_to_line_array = private unnamed_addr constant [27 x i8] c"convert_file_to_line_array\00", align 1
@.str.35 = private unnamed_addr constant [2 x i8] zeroinitializer, align 1

; Function Attrs: nounwind uwtable
define dso_local ptr @convert_file_to_line_array(ptr noundef %0, ptr noundef %1) #0 {
  %3 = alloca ptr, align 8
  %4 = alloca ptr, align 8
  %5 = alloca i32, align 4
  %6 = alloca ptr, align 8
  %7 = alloca ptr, align 8
  store ptr %0, ptr %3, align 8
  store ptr %1, ptr %4, align 8
  call void @llvm.lifetime.start.p0(i64 4, ptr %5) #6
  store i32 1, ptr %5, align 4
  call void @llvm.lifetime.start.p0(i64 8, ptr %6) #6
  %8 = call ptr @slurm_xcalloc(i64 noundef 3, i64 noundef 8, i1 noundef zeroext true, i1 noundef zeroext false, ptr noundef @.str.34, i32 noundef 406, ptr noundef @__func__.convert_file_to_line_array)
  store ptr %8, ptr %6, align 8
  call void @llvm.lifetime.start.p0(i64 8, ptr %7) #6
  %9 = load ptr, ptr %3, align 8
  store ptr %9, ptr %7, align 8
  %10 = load ptr, ptr %6, align 8
  %11 = getelementptr inbounds ptr, ptr %10, i64 0
  store ptr @.str.35, ptr %11, align 8
  %12 = load ptr, ptr %7, align 8
  %13 = load ptr, ptr %6, align 8
  %14 = getelementptr inbounds ptr, ptr %13, i64 1
  store ptr %12, ptr %14, align 8
  br label %15

15:                                               ; preds = %49, %2
  %16 = load ptr, ptr %7, align 8
  %17 = load i8, ptr %16, align 1
  %18 = sext i8 %17 to i32
  %19 = icmp ne i32 %18, 0
  br i1 %19, label %20, label %50

20:                                               ; preds = %15
  %21 = load ptr, ptr %7, align 8
  %22 = load i8, ptr %21, align 1
  %23 = sext i8 %22 to i32
  %24 = icmp eq i32 %23, 10
  br i1 %24, label %25, label %46

25:                                               ; preds = %20
  %26 = load ptr, ptr %7, align 8
  store i8 0, ptr %26, align 1
  %27 = load ptr, ptr %7, align 8
  %28 = getelementptr inbounds nuw i8, ptr %27, i32 1
  store ptr %28, ptr %7, align 8
  %29 = load i32, ptr %5, align 4
  %30 = add nsw i32 %29, 1
  store i32 %30, ptr %5, align 4
  %31 = load ptr, ptr %7, align 8
  %32 = load i8, ptr %31, align 1
  %33 = sext i8 %32 to i32
  %34 = icmp eq i32 %33, 0
  br i1 %34, label %35, label %36

35:                                               ; preds = %25
  br label %50

36:                                               ; preds = %25
  %37 = load i32, ptr %5, align 4
  %38 = add nsw i32 %37, 2
  %39 = sext i32 %38 to i64
  %40 = call ptr @slurm_xrecalloc(ptr noundef %6, i64 noundef %39, i64 noundef 8, i1 noundef zeroext true, i1 noundef zeroext false, ptr noundef @.str.34, i32 noundef 418, ptr noundef @__func__.convert_file_to_line_array)
  %41 = load ptr, ptr %7, align 8
  %42 = load ptr, ptr %6, align 8
  %43 = load i32, ptr %5, align 4
  %44 = sext i32 %43 to i64
  %45 = getelementptr inbounds ptr, ptr %42, i64 %44
  store ptr %41, ptr %45, align 8
  br label %49

46:                                               ; preds = %20
  %47 = load ptr, ptr %7, align 8
  %48 = getelementptr inbounds nuw i8, ptr %47, i32 1
  store ptr %48, ptr %7, align 8
  br label %49

49:                                               ; preds = %46, %36
  br label %15, !llvm.loop !17

50:                                               ; preds = %35, %15
  %51 = load i32, ptr %5, align 4
  %52 = load ptr, ptr %4, align 8
  store i32 %51, ptr %52, align 4
  %53 = load ptr, ptr %6, align 8
  call void @llvm.lifetime.end.p0(i64 8, ptr %7) #6
  call void @llvm.lifetime.end.p0(i64 8, ptr %6) #6
  call void @llvm.lifetime.end.p0(i64 4, ptr %5) #6
  ret ptr %53
}