; Function Attrs: nounwind uwtable
define dso_local ptr @convert_file_to_line_array(ptr noundef %0, ptr noundef writeonly captures(none) %1) local_unnamed_addr #0 {
  %3 = alloca ptr, align 8
  call void @llvm.lifetime.start.p0(i64 8, ptr nonnull %3) #8
  %4 = tail call ptr @slurm_xcalloc(i64 noundef 3, i64 noundef 8, i1 noundef zeroext true, i1 noundef zeroext false, ptr noundef nonnull @.str.34, i32 noundef 406, ptr noundef nonnull @__func__.convert_file_to_line_array) #8
  store ptr %4, ptr %3, align 8
  store ptr @.str.35, ptr %4, align 8
  %5 = getelementptr inbounds nuw i8, ptr %4, i64 8
  store ptr %0, ptr %5, align 8
  br label %.outer

.outer:                                           ; preds = %13, %2
  %.013.ph = phi i32 [ %10, %13 ], [ 1, %2 ]
  %.0.ph = phi ptr [ %9, %13 ], [ %0, %2 ]
  br label %6

6:                                                ; preds = %.outer, %20
  %.0 = phi ptr [ %21, %20 ], [ %.0.ph, %.outer ]
  %7 = load i8, ptr %.0, align 1
  switch i8 %7, label %20 [
    i8 0, label %.loopexit
    i8 10, label %8
  ]

8:                                                ; preds = %6
  store i8 0, ptr %.0, align 1
  %9 = getelementptr inbounds nuw i8, ptr %.0, i64 1
  %10 = add nuw nsw i32 %.013.ph, 1
  %11 = load i8, ptr %9, align 1
  %12 = icmp eq i8 %11, 0
  br i1 %12, label %.loopexit, label %13

13:                                               ; preds = %8
  %14 = add nuw nsw i32 %.013.ph, 3
  %15 = zext nneg i32 %14 to i64
  %16 = call ptr @slurm_xrecalloc(ptr noundef nonnull %3, i64 noundef %15, i64 noundef 8, i1 noundef zeroext true, i1 noundef zeroext false, ptr noundef nonnull @.str.34, i32 noundef 418, ptr noundef nonnull @__func__.convert_file_to_line_array) #8
  %17 = load ptr, ptr %3, align 8
  %18 = zext nneg i32 %10 to i64
  %19 = getelementptr inbounds nuw ptr, ptr %17, i64 %18
  store ptr %9, ptr %19, align 8
  br label %.outer, !llvm.loop !17

20:                                               ; preds = %6
  %21 = getelementptr inbounds nuw i8, ptr %.0, i64 1
  br label %6, !llvm.loop !17

.loopexit:                                        ; preds = %8, %6
  %.114 = phi i32 [ %.013.ph, %6 ], [ %10, %8 ]
  store i32 %.114, ptr %1, align 4
  %22 = load ptr, ptr %3, align 8
  call void @llvm.lifetime.end.p0(i64 8, ptr nonnull %3) #8
  ret ptr %22
}